; Function Attrs: nofree norecurse nosync nounwind memory(readwrite, inaccessiblemem: none) uwtable
define void @Gia_ManMulFindSetArg(ptr noundef readonly captures(none) %0, i32 noundef %1, i32 noundef %2) local_unnamed_addr #6 {
  %4 = getelementptr i8, ptr %0, i64 8
  %.val8 = load ptr, ptr %4, align 8, !tbaa !137
  %5 = getelementptr i8, ptr %0, i64 4
  %.val = load i32, ptr %5, align 4, !tbaa !133
  %6 = icmp sgt i32 %.val, 0
  br i1 %6, label %.lr.ph, label %._crit_edge

.lr.ph:                                           ; preds = %3
  %7 = zext nneg i32 %1 to i64
  %8 = shl nuw i64 1, %7
  %wide.trip.count = zext nneg i32 %.val to i64
  br label %9

9:                                                ; preds = %.lr.ph, %17
  %indvars.iv = phi i64 [ 0, %.lr.ph ], [ %indvars.iv.next, %17 ]
  %10 = trunc nuw nsw i64 %indvars.iv to i32
  %11 = shl nuw i32 1, %10
  %12 = and i32 %11, %2
  %.not = icmp eq i32 %12, 0
  br i1 %.not, label %17, label %13

13:                                               ; preds = %9
  %14 = getelementptr inbounds nuw i64, ptr %.val8, i64 %indvars.iv
  %15 = load i64, ptr %14, align 8, !tbaa !138
  %16 = or i64 %15, %8
  store i64 %16, ptr %14, align 8, !tbaa !138
  br label %17

17:                                               ; preds = %9, %13
  %indvars.iv.next = add nuw nsw i64 %indvars.iv, 1
  %exitcond.not = icmp eq i64 %indvars.iv.next, %wide.trip.count
  br i1 %exitcond.not, label %._crit_edge, label %9, !llvm.loop !144

._crit_edge:                                      ; preds = %17, %3
  ret void
}